target datalayout = "e-m:e-p270:32:32-p271:32:32-p272:64:64-i64:64-i128:128-f80:128-n8:16:32:64-S128"
target triple = "x86_64-unknown-linux-gnu"

%struct.QemuMutex = type { %union.pthread_mutex_t, i8 }
%union.pthread_mutex_t = type { %struct.__pthread_mutex_s }
%struct.__pthread_mutex_s = type { i32, i32, i32, i32, i32, i16, i16, %struct.__pthread_internal_list }
%struct.__pthread_internal_list = type { ptr, ptr }
%struct.RAMList = type { %struct.QemuMutex, ptr, %struct.anon.0, [3 x ptr], i32, %struct.anon.1 }
%struct.anon.0 = type { ptr }
%struct.anon.1 = type { ptr }
%struct.RAMBlock = type { %struct.rcu_head, ptr, ptr, ptr, i64, i64, i64, ptr, i32, [256 x i8], %struct.anon.2, %struct.anon.3, i32, i64, i64, ptr, ptr, ptr, i8, i64 }
%struct.rcu_head = type { ptr, ptr }
%struct.anon.2 = type { ptr, ptr }
%struct.anon.3 = type { ptr }
%struct.RAMState = type { [2 x %struct.PageSearchStatus], i32, i64, ptr, i64, i32, i32, i64, i64, i64, i64, i64, i64, i8, i8, i64, i64, i64, %struct.QemuMutex, ptr, %struct.QemuMutex, %struct.anon.5, i32 }
%struct.PageSearchStatus = type { ptr, ptr, ptr, i64, i8, i8, i64, i64 }
%struct.anon.5 = type { ptr, ptr }
%struct.DirtyMemoryBlocks = type { %struct.rcu_head, [0 x ptr] }

@ram_list = external global %struct.RAMList, align 8
@.str.62 = private unnamed_addr constant [102 x i8] c"/home/dtcxzyw/WorkSpace/Projects/compilers/llvm-opt-benchmark/bench/qemu/qemu/include/exec/ram_addr.h\00", align 1
@__func__.cpu_physical_memory_sync_dirty_bitmap = private unnamed_addr constant [38 x i8] c"cpu_physical_memory_sync_dirty_bitmap\00", align 1

; Function Attrs: nounwind sspstrong uwtable
define internal i64 @clear_bmap_size(i64 noundef %pages, i8 noundef zeroext %shift) #0 {
entry:
  %pages.addr = alloca i64, align 8
  %shift.addr = alloca i8, align 1
  store i64 %pages, ptr %pages.addr, align 8
  store i8 %shift, ptr %shift.addr, align 1
  %0 = load i64, ptr %pages.addr, align 8
  %1 = load i8, ptr %shift.addr, align 1
  %conv = zext i8 %1 to i32
  %sh_prom = zext i32 %conv to i64
  %shl = shl i64 1, %sh_prom
  %add = add i64 %0, %shl
  %sub = sub i64 %add, 1
  %2 = load i8, ptr %shift.addr, align 1
  %conv1 = zext i8 %2 to i32
  %sh_prom2 = zext i32 %conv1 to i64
  %shl3 = shl i64 1, %sh_prom2
  %div = udiv i64 %sub, %shl3
  ret i64 %div
}

; Function Attrs: nounwind sspstrong uwtable
define internal i32 @test_and_set_bit(i64 noundef %nr, ptr noundef %addr) #0 {
entry:
  %nr.addr = alloca i64, align 8
  %addr.addr = alloca ptr, align 8
  %mask = alloca i64, align 8
  %p = alloca ptr, align 8
  %old = alloca i64, align 8
  store i64 %nr, ptr %nr.addr, align 8
  store ptr %addr, ptr %addr.addr, align 8
  %0 = load i64, ptr %nr.addr, align 8
  %rem = urem i64 %0, 64
  %shl = shl i64 1, %rem
  store i64 %shl, ptr %mask, align 8
  %1 = load ptr, ptr %addr.addr, align 8
  %2 = load i64, ptr %nr.addr, align 8
  %div = udiv i64 %2, 64
  %add.ptr = getelementptr i64, ptr %1, i64 %div
  store ptr %add.ptr, ptr %p, align 8
  %3 = load ptr, ptr %p, align 8
  %4 = load i64, ptr %3, align 8
  store i64 %4, ptr %old, align 8
  %5 = load i64, ptr %old, align 8
  %6 = load i64, ptr %mask, align 8
  %or = or i64 %5, %6
  %7 = load ptr, ptr %p, align 8
  store i64 %or, ptr %7, align 8
  %8 = load i64, ptr %old, align 8
  %9 = load i64, ptr %mask, align 8
  %and = and i64 %8, %9
  %cmp = icmp ne i64 %and, 0
  %conv = zext i1 %cmp to i32
  ret i32 %conv
}

; Function Attrs: nounwind sspstrong uwtable
define internal void @clear_bmap_set(ptr noundef %rb, i64 noundef %start, i64 noundef %npages) #0 {
entry:
  %rb.addr = alloca ptr, align 8
  %start.addr = alloca i64, align 8
  %npages.addr = alloca i64, align 8
  %shift = alloca i8, align 1
  store ptr %rb, ptr %rb.addr, align 8
  store i64 %start, ptr %start.addr, align 8
  store i64 %npages, ptr %npages.addr, align 8
  %0 = load ptr, ptr %rb.addr, align 8
  %clear_bmap_shift = getelementptr inbounds %struct.RAMBlock, ptr %0, i32 0, i32 18
  %1 = load i8, ptr %clear_bmap_shift, align 8
  store i8 %1, ptr %shift, align 1
  %2 = load ptr, ptr %rb.addr, align 8
  %clear_bmap = getelementptr inbounds %struct.RAMBlock, ptr %2, i32 0, i32 17
  %3 = load ptr, ptr %clear_bmap, align 8
  %4 = load i64, ptr %start.addr, align 8
  %5 = load i8, ptr %shift, align 1
  %conv = zext i8 %5 to i32
  %sh_prom = zext i32 %conv to i64
  %shr = lshr i64 %4, %sh_prom
  %6 = load i64, ptr %npages.addr, align 8
  %7 = load i8, ptr %shift, align 1
  %call = call i64 @clear_bmap_size(i64 noundef %6, i8 noundef zeroext %7)
  call void @bitmap_set(ptr noundef %3, i64 noundef %shr, i64 noundef %call)
  ret void
}

; Function Attrs: nounwind sspstrong uwtable
define internal i32 @ctpop64(i64 noundef %val) #0 {
entry:
  %val.addr = alloca i64, align 8
  store i64 %val, ptr %val.addr, align 8
  %0 = load i64, ptr %val.addr, align 8
  %1 = call i64 @llvm.ctpop.i64(i64 %0)
  %cast = trunc i64 %1 to i32
  ret i32 %cast
}

; Function Attrs: nounwind sspstrong uwtable
define internal i64 @cpu_physical_memory_sync_dirty_bitmap(ptr noundef %rb, i64 noundef %start, i64 noundef %length) #0 {
entry:
  %rb.addr = alloca ptr, align 8
  %start.addr = alloca i64, align 8
  %length.addr = alloca i64, align 8
  %addr = alloca i64, align 8
  %word = alloca i64, align 8
  %num_dirty = alloca i64, align 8
  %dest = alloca ptr, align 8
  %k = alloca i32, align 4
  %nr = alloca i32, align 4
  %src = alloca ptr, align 8
  %idx = alloca i64, align 8
  %offset8 = alloca i64, align 8
  %page = alloca i64, align 8
  %_val15 = alloca ptr, align 8
  %tmp = alloca ptr, align 8
  %bits = alloca i64, align 8
  %tmp27 = alloca i64, align 8
  %tmp28 = alloca i64, align 8
  %.atomictmp = alloca i64, align 8
  %atomic-temp = alloca i64, align 8
  %new_dirty = alloca i64, align 8
  %offset49 = alloca i64, align 8
  %k59 = alloca i64, align 8
  store ptr %rb, ptr %rb.addr, align 8
  store i64 %start, ptr %start.addr, align 8
  store i64 %length, ptr %length.addr, align 8
  %0 = load i64, ptr %start.addr, align 8
  %1 = load ptr, ptr %rb.addr, align 8
  %offset = getelementptr inbounds %struct.RAMBlock, ptr %1, i32 0, i32 4
  %2 = load i64, ptr %offset, align 8
  %add = add i64 %0, %2
  %shr = lshr i64 %add, 12
  %div = udiv i64 %shr, 64
  store i64 %div, ptr %word, align 8
  store i64 0, ptr %num_dirty, align 8
  %3 = load ptr, ptr %rb.addr, align 8
  %bmap = getelementptr inbounds %struct.RAMBlock, ptr %3, i32 0, i32 15
  %4 = load ptr, ptr %bmap, align 8
  store ptr %4, ptr %dest, align 8
  %5 = load i64, ptr %word, align 8
  %mul = mul i64 %5, 64
  %shl = shl i64 %mul, 12
  %6 = load i64, ptr %start.addr, align 8
  %7 = load ptr, ptr %rb.addr, align 8
  %offset1 = getelementptr inbounds %struct.RAMBlock, ptr %7, i32 0, i32 4
  %8 = load i64, ptr %offset1, align 8
  %add2 = add i64 %6, %8
  %cmp = icmp eq i64 %shl, %add2
  br i1 %cmp, label %land.lhs.true, label %if.else48

land.lhs.true:                                    ; preds = %entry
  %9 = load i64, ptr %length.addr, align 8
  %and = and i64 %9, 262143
  %tobool = icmp ne i64 %and, 0
  br i1 %tobool, label %if.else48, label %if.then

if.then:                                          ; preds = %land.lhs.true
  %10 = load i64, ptr %length.addr, align 8
  %shr3 = lshr i64 %10, 12
  %add4 = add i64 %shr3, 64
  %sub = sub i64 %add4, 1
  %div5 = udiv i64 %sub, 64
  %conv = trunc i64 %div5 to i32
  store i32 %conv, ptr %nr, align 4
  %11 = load i64, ptr %word, align 8
  %mul6 = mul i64 %11, 64
  %div7 = udiv i64 %mul6, 2097152
  store i64 %div7, ptr %idx, align 8
  %12 = load i64, ptr %word, align 8
  %mul9 = mul i64 %12, 64
  %rem = urem i64 %mul9, 2097152
  %div10 = udiv i64 %rem, 64
  store i64 %div10, ptr %offset8, align 8
  %13 = load i64, ptr %start.addr, align 8
  %shr11 = lshr i64 %13, 12
  %div12 = udiv i64 %shr11, 64
  store i64 %div12, ptr %page, align 8
  br label %while.cond

while.cond:                                       ; preds = %do.end, %if.then
  br i1 false, label %while.body, label %while.end

while.body:                                       ; preds = %while.cond
  br label %do.body

do.body:                                          ; preds = %while.body
  call void @g_assertion_message_expr(ptr noundef null, ptr noundef @.str.62, i32 noundef 490, ptr noundef @__func__.cpu_physical_memory_sync_dirty_bitmap, ptr noundef null) #12
  unreachable

do.end:                                           ; No predecessors!
  br label %while.cond

while.end:                                        ; preds = %while.cond
  %14 = getelementptr inbounds %struct.RAMList, ptr @ram_list, i32 0, i32 3, i64 2
  %15 = load atomic i64, ptr %14 monotonic, align 8
  store i64 %15, ptr %_val15, align 8
  call void asm sideeffect "", "~{memory},~{dirflag},~{fpsr},~{flags}"() #13, !srcloc !85
  %16 = load ptr, ptr %_val15, align 8
  store ptr %16, ptr %tmp, align 8
  %17 = load ptr, ptr %tmp, align 8
  %blocks = getelementptr inbounds %struct.DirtyMemoryBlocks, ptr %17, i32 0, i32 1
  %arraydecay = getelementptr inbounds [0 x ptr], ptr %blocks, i64 0, i64 0
  store ptr %arraydecay, ptr %src, align 8
  %18 = load i64, ptr %page, align 8
  %conv13 = trunc i64 %18 to i32
  store i32 %conv13, ptr %k, align 4
  br label %for.cond

for.cond:                                         ; preds = %for.inc, %while.end
  %19 = load i32, ptr %k, align 4
  %conv14 = sext i32 %19 to i64
  %20 = load i64, ptr %page, align 8
  %21 = load i32, ptr %nr, align 4
  %conv15 = sext i32 %21 to i64
  %add16 = add i64 %20, %conv15
  %cmp17 = icmp ult i64 %conv14, %add16
  br i1 %cmp17, label %for.body, label %for.end

for.body:                                         ; preds = %for.cond
  %22 = load ptr, ptr %src, align 8
  %23 = load i64, ptr %idx, align 8
  %arrayidx = getelementptr ptr, ptr %22, i64 %23
  %24 = load ptr, ptr %arrayidx, align 8
  %25 = load i64, ptr %offset8, align 8
  %arrayidx19 = getelementptr i64, ptr %24, i64 %25
  %26 = load i64, ptr %arrayidx19, align 8
  %tobool20 = icmp ne i64 %26, 0
  br i1 %tobool20, label %if.then21, label %if.end

if.then21:                                        ; preds = %for.body
  br label %while.cond22

while.cond22:                                     ; preds = %do.end25, %if.then21
  br i1 false, label %while.body23, label %while.end26

while.body23:                                     ; preds = %while.cond22
  br label %do.body24

do.body24:                                        ; preds = %while.body23
  call void @g_assertion_message_expr(ptr noundef null, ptr noundef @.str.62, i32 noundef 494, ptr noundef @__func__.cpu_physical_memory_sync_dirty_bitmap, ptr noundef null) #12
  unreachable

do.end25:                                         ; No predecessors!
  br label %while.cond22

while.end26:                                      ; preds = %while.cond22
  %27 = load ptr, ptr %src, align 8
  %28 = load i64, ptr %idx, align 8
  %arrayidx29 = getelementptr ptr, ptr %27, i64 %28
  %29 = load ptr, ptr %arrayidx29, align 8
  %30 = load i64, ptr %offset8, align 8
  %arrayidx30 = getelementptr i64, ptr %29, i64 %30
  store i64 0, ptr %.atomictmp, align 8
  %31 = load i64, ptr %.atomictmp, align 8
  %32 = atomicrmw xchg ptr %arrayidx30, i64 %31 seq_cst, align 8
  store i64 %32, ptr %atomic-temp, align 8
  %33 = load i64, ptr %atomic-temp, align 8
  store i64 %33, ptr %tmp28, align 8
  %34 = load i64, ptr %tmp28, align 8
  store i64 %34, ptr %tmp27, align 8
  %35 = load i64, ptr %tmp27, align 8
  store i64 %35, ptr %bits, align 8
  %36 = load ptr, ptr %dest, align 8
  %37 = load i32, ptr %k, align 4
  %idxprom = sext i32 %37 to i64
  %arrayidx31 = getelementptr i64, ptr %36, i64 %idxprom
  %38 = load i64, ptr %arrayidx31, align 8
  %not = xor i64 %38, -1
  store i64 %not, ptr %new_dirty, align 8
  %39 = load i64, ptr %bits, align 8
  %40 = load ptr, ptr %dest, align 8
  %41 = load i32, ptr %k, align 4
  %idxprom32 = sext i32 %41 to i64
  %arrayidx33 = getelementptr i64, ptr %40, i64 %idxprom32
  %42 = load i64, ptr %arrayidx33, align 8
  %or = or i64 %42, %39
  store i64 %or, ptr %arrayidx33, align 8
  %43 = load i64, ptr %bits, align 8
  %44 = load i64, ptr %new_dirty, align 8
  %and34 = and i64 %44, %43
  store i64 %and34, ptr %new_dirty, align 8
  %45 = load i64, ptr %new_dirty, align 8
  %call = call i32 @ctpop64(i64 noundef %45)
  %conv35 = sext i32 %call to i64
  %46 = load i64, ptr %num_dirty, align 8
  %add36 = add i64 %46, %conv35
  store i64 %add36, ptr %num_dirty, align 8
  br label %if.end

if.end:                                           ; preds = %while.end26, %for.body
  %47 = load i64, ptr %offset8, align 8
  %inc = add i64 %47, 1
  store i64 %inc, ptr %offset8, align 8
  %cmp37 = icmp uge i64 %inc, 32768
  br i1 %cmp37, label %if.then39, label %if.end41

if.then39:                                        ; preds = %if.end
  store i64 0, ptr %offset8, align 8
  %48 = load i64, ptr %idx, align 8
  %inc40 = add i64 %48, 1
  store i64 %inc40, ptr %idx, align 8
  br label %if.end41

if.end41:                                         ; preds = %if.then39, %if.end
  br label %for.inc

for.inc:                                          ; preds = %if.end41
  %49 = load i32, ptr %k, align 4
  %inc42 = add i32 %49, 1
  store i32 %inc42, ptr %k, align 4
  br label %for.cond, !llvm.loop !86

for.end:                                          ; preds = %for.cond
  %50 = load ptr, ptr %rb.addr, align 8
  %clear_bmap = getelementptr inbounds %struct.RAMBlock, ptr %50, i32 0, i32 17
  %51 = load ptr, ptr %clear_bmap, align 8
  %tobool43 = icmp ne ptr %51, null
  br i1 %tobool43, label %if.then44, label %if.else

if.then44:                                        ; preds = %for.end
  %52 = load ptr, ptr %rb.addr, align 8
  %53 = load i64, ptr %start.addr, align 8
  %shr45 = lshr i64 %53, 12
  %54 = load i64, ptr %length.addr, align 8
  %shr46 = lshr i64 %54, 12
  call void @clear_bmap_set(ptr noundef %52, i64 noundef %shr45, i64 noundef %shr46)
  br label %if.end47

if.else:                                          ; preds = %for.end
  %55 = load ptr, ptr %rb.addr, align 8
  %mr = getelementptr inbounds %struct.RAMBlock, ptr %55, i32 0, i32 1
  %56 = load ptr, ptr %mr, align 8
  %57 = load i64, ptr %start.addr, align 8
  %58 = load i64, ptr %length.addr, align 8
  call void @memory_region_clear_dirty_bitmap(ptr noundef %56, i64 noundef %57, i64 noundef %58)
  br label %if.end47

if.end47:                                         ; preds = %if.else, %if.then44
  br label %if.end71

if.else48:                                        ; preds = %land.lhs.true, %entry
  %59 = load ptr, ptr %rb.addr, align 8
  %offset50 = getelementptr inbounds %struct.RAMBlock, ptr %59, i32 0, i32 4
  %60 = load i64, ptr %offset50, align 8
  store i64 %60, ptr %offset49, align 8
  store i64 0, ptr %addr, align 8
  br label %for.cond51

for.cond51:                                       ; preds = %for.inc68, %if.else48
  %61 = load i64, ptr %addr, align 8
  %62 = load i64, ptr %length.addr, align 8
  %cmp52 = icmp ult i64 %61, %62
  br i1 %cmp52, label %for.body54, label %for.end70

for.body54:                                       ; preds = %for.cond51
  %63 = load i64, ptr %start.addr, align 8
  %64 = load i64, ptr %addr, align 8
  %add55 = add i64 %63, %64
  %65 = load i64, ptr %offset49, align 8
  %add56 = add i64 %add55, %65
  %call57 = call zeroext i1 @cpu_physical_memory_test_and_clear_dirty(i64 noundef %add56, i64 noundef 4096, i32 noundef 2)
  br i1 %call57, label %if.then58, label %if.end67

if.then58:                                        ; preds = %for.body54
  %66 = load i64, ptr %start.addr, align 8
  %67 = load i64, ptr %addr, align 8
  %add60 = add i64 %66, %67
  %shr61 = lshr i64 %add60, 12
  store i64 %shr61, ptr %k59, align 8
  %68 = load i64, ptr %k59, align 8
  %69 = load ptr, ptr %dest, align 8
  %call62 = call i32 @test_and_set_bit(i64 noundef %68, ptr noundef %69)
  %tobool63 = icmp ne i32 %call62, 0
  br i1 %tobool63, label %if.end66, label %if.then64

if.then64:                                        ; preds = %if.then58
  %70 = load i64, ptr %num_dirty, align 8
  %inc65 = add i64 %70, 1
  store i64 %inc65, ptr %num_dirty, align 8
  br label %if.end66

if.end66:                                         ; preds = %if.then64, %if.then58
  br label %if.end67

if.end67:                                         ; preds = %if.end66, %for.body54
  br label %for.inc68

for.inc68:                                        ; preds = %if.end67
  %71 = load i64, ptr %addr, align 8
  %add69 = add i64 %71, 4096
  store i64 %add69, ptr %addr, align 8
  br label %for.cond51, !llvm.loop !87

for.end70:                                        ; preds = %for.cond51
  br label %if.end71

if.end71:                                         ; preds = %for.end70, %if.end47
  %72 = load i64, ptr %num_dirty, align 8
  ret i64 %72
}

; Function Attrs: nounwind sspstrong uwtable
define internal void @ramblock_sync_dirty_bitmap(ptr noundef %rs, ptr noundef %rb) #0 {
entry:
  %rs.addr = alloca ptr, align 8
  %rb.addr = alloca ptr, align 8
  %new_dirty_pages = alloca i64, align 8
  store ptr %rs, ptr %rs.addr, align 8
  store ptr %rb, ptr %rb.addr, align 8
  %0 = load ptr, ptr %rb.addr, align 8
  %1 = load ptr, ptr %rb.addr, align 8
  %used_length = getelementptr inbounds %struct.RAMBlock, ptr %1, i32 0, i32 5
  %2 = load i64, ptr %used_length, align 8
  %call = call i64 @cpu_physical_memory_sync_dirty_bitmap(ptr noundef %0, i64 noundef 0, i64 noundef %2)
  store i64 %call, ptr %new_dirty_pages, align 8
  %3 = load i64, ptr %new_dirty_pages, align 8
  %4 = load ptr, ptr %rs.addr, align 8
  %migration_dirty_pages = getelementptr inbounds %struct.RAMState, ptr %4, i32 0, i32 17
  %5 = load i64, ptr %migration_dirty_pages, align 8
  %add = add i64 %5, %3
  store i64 %add, ptr %migration_dirty_pages, align 8
  %6 = load i64, ptr %new_dirty_pages, align 8
  %7 = load ptr, ptr %rs.addr, align 8
  %num_dirty_pages_period = getelementptr inbounds %struct.RAMState, ptr %7, i32 0, i32 9
  %8 = load i64, ptr %num_dirty_pages_period, align 8
  %add1 = add i64 %8, %6
  store i64 %add1, ptr %num_dirty_pages_period, align 8
  ret void
}