; Function Attrs: nounwind sspstrong uwtable
define internal fastcc void @ramblock_sync_dirty_bitmap(ptr noundef captures(none) %rs, ptr noundef nonnull readonly captures(none) %rb) unnamed_addr #0 {
entry:
  %used_length = getelementptr inbounds nuw i8, ptr %rb, i64 48
  %0 = load i64, ptr %used_length, align 8
  %offset.i = getelementptr inbounds nuw i8, ptr %rb, i64 40
  %1 = load i64, ptr %offset.i, align 8
  %bmap.i = getelementptr inbounds nuw i8, ptr %rb, i64 384
  %2 = load ptr, ptr %bmap.i, align 8
  %3 = or i64 %1, %0
  %4 = and i64 %3, 262143
  %or.cond.i = icmp eq i64 %4, 0
  br i1 %or.cond.i, label %if.then.i, label %for.cond51.preheader.i

for.cond51.preheader.i:                           ; preds = %entry
  %cmp5245.not.i = icmp eq i64 %0, 0
  br i1 %cmp5245.not.i, label %cpu_physical_memory_sync_dirty_bitmap.exit, label %for.body54.i

if.then.i:                                        ; preds = %entry
  %shr3.i = lshr exact i64 %0, 12
  %5 = load atomic i64, ptr getelementptr inbounds nuw (i8, ptr @ram_list, i64 80) monotonic, align 8
  %6 = inttoptr i64 %5 to ptr
  tail call void asm sideeffect "", "~{memory},~{dirflag},~{fpsr},~{flags}"() #18, !srcloc !64
  %blocks.i = getelementptr inbounds nuw i8, ptr %6, i64 16
  %sext.i = shl i64 %0, 14
  %conv15.i = ashr exact i64 %sext.i, 32
  %cmp1748.not.i = icmp eq i64 %sext.i, 0
  br i1 %cmp1748.not.i, label %for.end.i, label %for.body.preheader.i

for.body.preheader.i:                             ; preds = %if.then.i
  %7 = lshr i64 %1, 18
  %rem.i = and i64 %7, 32767
  %div739.i = lshr i64 %1, 33
  br label %for.body.i

for.body.i:                                       ; preds = %if.end.i, %for.body.preheader.i
  %conv1453.i = phi i64 [ %conv14.i, %if.end.i ], [ 0, %for.body.preheader.i ]
  %num_dirty.052.i = phi i64 [ %num_dirty.1.i, %if.end.i ], [ 0, %for.body.preheader.i ]
  %k.051.i = phi i32 [ %inc42.i, %if.end.i ], [ 0, %for.body.preheader.i ]
  %idx.050.i = phi i64 [ %spec.select41.i, %if.end.i ], [ %div739.i, %for.body.preheader.i ]
  %offset8.049.i = phi i64 [ %spec.select.i, %if.end.i ], [ %rem.i, %for.body.preheader.i ]
  %arrayidx.i = getelementptr ptr, ptr %blocks.i, i64 %idx.050.i
  %8 = load ptr, ptr %arrayidx.i, align 8
  %arrayidx19.i = getelementptr i64, ptr %8, i64 %offset8.049.i
  %9 = load i64, ptr %arrayidx19.i, align 8
  %tobool20.not.i = icmp eq i64 %9, 0
  br i1 %tobool20.not.i, label %if.end.i, label %while.end26.i

while.end26.i:                                    ; preds = %for.body.i
  %10 = atomicrmw xchg ptr %arrayidx19.i, i64 0 seq_cst, align 8
  %arrayidx31.i = getelementptr i64, ptr %2, i64 %conv1453.i
  %11 = load i64, ptr %arrayidx31.i, align 8
  %not.i = xor i64 %11, -1
  %or.i = or i64 %11, %10
  store i64 %or.i, ptr %arrayidx31.i, align 8
  %and34.i = and i64 %10, %not.i
  %12 = tail call range(i64 0, 65) i64 @llvm.ctpop.i64(i64 %and34.i)
  %add36.i = add i64 %12, %num_dirty.052.i
  br label %if.end.i

if.end.i:                                         ; preds = %while.end26.i, %for.body.i
  %num_dirty.1.i = phi i64 [ %add36.i, %while.end26.i ], [ %num_dirty.052.i, %for.body.i ]
  %inc.i = add nuw nsw i64 %offset8.049.i, 1
  %cmp37.i = icmp ugt i64 %offset8.049.i, 32766
  %spec.select.i = select i1 %cmp37.i, i64 0, i64 %inc.i
  %inc40.i = zext i1 %cmp37.i to i64
  %spec.select41.i = add i64 %idx.050.i, %inc40.i
  %inc42.i = add i32 %k.051.i, 1
  %conv14.i = sext i32 %inc42.i to i64
  %cmp17.i = icmp ugt i64 %conv15.i, %conv14.i
  br i1 %cmp17.i, label %for.body.i, label %for.end.i, !llvm.loop !65

for.end.i:                                        ; preds = %if.end.i, %if.then.i
  %num_dirty.0.lcssa.i = phi i64 [ 0, %if.then.i ], [ %num_dirty.1.i, %if.end.i ]
  %clear_bmap.i = getelementptr inbounds nuw i8, ptr %rb, i64 400
  %13 = load ptr, ptr %clear_bmap.i, align 8
  %tobool43.not.i = icmp eq ptr %13, null
  br i1 %tobool43.not.i, label %if.else.i, label %if.then44.i

if.then44.i:                                      ; preds = %for.end.i
  %14 = getelementptr i8, ptr %rb, i64 408
  %rb.val43.i = load i8, ptr %14, align 8
  %sh_prom.i.i.i = zext nneg i8 %rb.val43.i to i64
  %shl.i.i.i = shl nuw i64 1, %sh_prom.i.i.i
  %add.i.i.i = add nsw i64 %shr3.i, -1
  %sub.i.i.i = add i64 %add.i.i.i, %shl.i.i.i
  %div2.i.i.i = lshr i64 %sub.i.i.i, %sh_prom.i.i.i
  tail call void @bitmap_set(ptr noundef nonnull %13, i64 noundef 0, i64 noundef %div2.i.i.i) #18
  br label %cpu_physical_memory_sync_dirty_bitmap.exit

if.else.i:                                        ; preds = %for.end.i
  %mr.i = getelementptr inbounds nuw i8, ptr %rb, i64 16
  %15 = load ptr, ptr %mr.i, align 8
  tail call void @memory_region_clear_dirty_bitmap(ptr noundef %15, i64 noundef 0, i64 noundef %0) #18
  br label %cpu_physical_memory_sync_dirty_bitmap.exit

for.body54.i:                                     ; preds = %for.cond51.preheader.i, %for.inc68.i
  %addr.047.i = phi i64 [ %add69.i, %for.inc68.i ], [ 0, %for.cond51.preheader.i ]
  %num_dirty.346.i = phi i64 [ %num_dirty.4.i, %for.inc68.i ], [ 0, %for.cond51.preheader.i ]
  %add56.i = add i64 %addr.047.i, %1
  %call57.i = tail call zeroext i1 @cpu_physical_memory_test_and_clear_dirty(i64 noundef %add56.i, i64 noundef 4096, i32 noundef 2) #18
  br i1 %call57.i, label %if.then58.i, label %for.inc68.i

if.then58.i:                                      ; preds = %for.body54.i
  %shr61.i = lshr exact i64 %addr.047.i, 12
  %rem.i.i = and i64 %shr61.i, 63
  %shl.i.i = shl nuw i64 1, %rem.i.i
  %div5.i.i = lshr i64 %addr.047.i, 18
  %add.ptr.i.i = getelementptr i64, ptr %2, i64 %div5.i.i
  %16 = load i64, ptr %add.ptr.i.i, align 8
  %or.i.i = or i64 %16, %shl.i.i
  store i64 %or.i.i, ptr %add.ptr.i.i, align 8
  %17 = xor i64 %16, -1
  %18 = lshr i64 %17, %rem.i.i
  %inc65.i = and i64 %18, 1
  %spec.select42.i = add i64 %inc65.i, %num_dirty.346.i
  br label %for.inc68.i

for.inc68.i:                                      ; preds = %if.then58.i, %for.body54.i
  %num_dirty.4.i = phi i64 [ %num_dirty.346.i, %for.body54.i ], [ %spec.select42.i, %if.then58.i ]
  %add69.i = add i64 %addr.047.i, 4096
  %cmp52.i = icmp ult i64 %add69.i, %0
  br i1 %cmp52.i, label %for.body54.i, label %cpu_physical_memory_sync_dirty_bitmap.exit, !llvm.loop !66

cpu_physical_memory_sync_dirty_bitmap.exit:       ; preds = %for.inc68.i, %for.cond51.preheader.i, %if.then44.i, %if.else.i
  %num_dirty.2.i = phi i64 [ %num_dirty.0.lcssa.i, %if.then44.i ], [ %num_dirty.0.lcssa.i, %if.else.i ], [ 0, %for.cond51.preheader.i ], [ %num_dirty.4.i, %for.inc68.i ]
  %migration_dirty_pages = getelementptr inbounds nuw i8, ptr %rs, i64 224
  %19 = load i64, ptr %migration_dirty_pages, align 8
  %add = add i64 %19, %num_dirty.2.i
  store i64 %add, ptr %migration_dirty_pages, align 8
  %num_dirty_pages_period = getelementptr inbounds nuw i8, ptr %rs, i64 168
  %20 = load i64, ptr %num_dirty_pages_period, align 8
  %add1 = add i64 %20, %num_dirty.2.i
  store i64 %add1, ptr %num_dirty_pages_period, align 8
  ret void
}